(dp0
S'00412'
p1
(lp2
S'10401'
p3
aS'10402'
p4
aS'00423'
p5
aS'11312'
p6
aS'12212'
p7
asS'00413'
p8
(lp9
S'12213'
p10
aS'10401'
p11
aS'00434'
p12
aS'10403'
p13
aS'11313'
p14
asS'00411'
p15
(lp16
g1
aS'10401'
p17
aS'12211'
p18
aS'11311'
p19
asS'00414'
p20
(lp21
S'10401'
p22
aS'11314'
p23
aS'10404'
p24
aS'00404'
p25
aS'12214'
p26
asS'10104'
p27
(lp28
S'1'
p29
aS'00113'
p30
aS'00122'
p31
aS'11104'
p32
aS'01404'
p33
asS'10101'
p34
(lp35
S'00111'
p36
aS'00201'
p37
aS'01101'
p38
asS'10103'
p39
(lp40
S'00112'
p41
aS'00403'
p42
aS'00133'
p43
aS'01303'
p44
asS'10102'
p45
(lp46
S'11102'
p47
aS'00111'
p48
aS'00302'
p49
aS'01202'
p50
asS'03323'
p51
(lp52
S'10323'
p53
aS'12423'
p54
aS'13302'
p55
aS'13303'
p56
asS'03322'
p57
(lp58
S'12422'
p59
aS'10322'
p60
aS'13302'
p61
asS'03324'
p62
(lp63
S'12424'
p64
aS'13304'
p65
aS'13302'
p66
aS'10324'
p67
asS'14424'
p68
(lp69
S'04402'
p70
aS'04404'
p71
aS'00424'
p72
aS'04433'
p73
asS'01422'
p74
(lp75
S'10422'
p76
aS'12322'
p77
aS'11423'
p78
aS'01424'
p79
aS'11402'
p80
asS'01423'
p81
(lp82
S'11403'
p83
aS'11402'
p84
aS'01402'
p85
aS'12323'
p86
aS'10423'
p87
aS'11433'
p88
aS'11424'
p89
asS'10202'
p90
(lp91
S'00211'
p92
aS'02202'
p93
aS'12202'
p94
aS'00402'
p95
asS'10203'
p96
(lp97
g29
aS'00233'
p98
aS'00212'
p99
aS'02303'
p100
asS'10201'
p101
(lp102
S'00211'
p103
aS'01201'
p104
aS'00301'
p105
asS'04414'
p106
(lp107
S'14404'
p108
aS'04423'
p109
aS'10414'
p110
aS'04401'
p111
aS'14401'
p112
asS'04412'
p113
(lp114
S'10412'
p115
aS'14401'
p116
aS'14402'
p117
aS'04413'
p118
asS'04413'
p119
(lp120
S'04414'
p121
aS'10413'
p122
aS'14401'
p123
aS'14403'
p124
asS'04411'
p125
(lp126
S'04412'
p127
aS'14401'
p128
aS'10411'
p129
asS'00304'
p130
(lp131
S'0'
p132
aS'13304'
p133
aS'11204'
p134
aS'10334'
p135
asS'00302'
p136
(lp137
g132
aS'10323'
p138
aS'11202'
p139
aS'13302'
p140
asS'00303'
p141
(lp142
S'10333'
p143
aS'11203'
p144
aS'13303'
p145
ag132
asS'00301'
p146
(lp147
S'10304'
p148
aS'11201'
p149
aS'10313'
p150
aS'13301'
p151
asS'02212'
p152
(lp153
S'11312'
p154
aS'12412'
p155
aS'12223'
p156
aS'12214'
p157
asS'02213'
p158
(lp159
S'12413'
p160
aS'11313'
p161
aS'12201'
p162
aS'12233'
p163
asS'11134'
p164
(lp165
S'00134'
p166
aS'01434'
p167
aS'11234'
p168
aS'01104'
p169
asS'11133'
p170
(lp171
S'01103'
p172
aS'01433'
p173
aS'01124'
p174
asS'02214'
p175
(lp176
S'12234'
p177
aS'11314'
p178
aS'12201'
p179
aS'12414'
p180
asS'03422'
p181
(lp182
S'10422'
p183
aS'13402'
p184
aS'03424'
p185
asS'03423'
p186
(lp187
S'10423'
p188
aS'13403'
p189
aS'13402'
p190
aS'03402'
p191
aS'03414'
p192
asS'13424'
p193
(lp194
S'00324'
p195
aS'03433'
p196
aS'00424'
p197
aS'03404'
p198
aS'03402'
p199
asS'13423'
p200
(lp201
S'10323'
p202
aS'03403'
p203
aS'00423'
p204
aS'00323'
p205
asS'13422'
p206
(lp207
S'03424'
p208
aS'03413'
p209
aS'00422'
p210
aS'00322'
p211
asg185
(lp212
S'03402'
p213
aS'13402'
p214
aS'13404'
p215
aS'10424'
p216
asS'01323'
p217
(lp218
S'11333'
p219
aS'12223'
p220
aS'11324'
p221
aS'11423'
p222
aS'11303'
p223
ag200
aS'11302'
p224
asS'01322'
p225
(lp226
S'11323'
p227
aS'11302'
p228
aS'11422'
p229
aS'12222'
p230
ag206
asS'01324'
p231
(lp232
S'12224'
p233
aS'11334'
p234
aS'11302'
p235
ag193
aS'11304'
p236
aS'11424'
p237
asg98
(lp238
S'00203'
p239
aS'11133'
p240
aS'10203'
p241
asS'00234'
p242
(lp243
S'10204'
p244
ag164
aS'10203'
p245
aS'00204'
p246
asS'10333'
p247
(lp248
g29
aS'03333'
p249
aS'00324'
p250
aS'00303'
p251
asS'10334'
p252
(lp253
g29
ag130
aS'11234'
p254
aS'03434'
p255
aS'03334'
p256
asS'12244'
p257
(lp258
S'12444'
p259
aS'02204'
p260
aS'00244'
p261
asS'13333'
p262
(lp263
S'00333'
p264
aS'03303'
p265
ag62
asS'13334'
p266
(lp267
S'03304'
p268
ag252
aS'00334'
p269
asS'00124'
p270
(lp271
S'10134'
p272
aS'11124'
p273
aS'00102'
p274
aS'10102'
p275
asS'00122'
p276
(lp277
S'10123'
p278
aS'00124'
p279
aS'11122'
p280
asS'00123'
p281
(lp282
S'11123'
p283
aS'00114'
p284
aS'10124'
p285
aS'00102'
p286
aS'10133'
p287
asS'14444'
p288
(lp289
S'10444'
p290
aS'00444'
p291
aS'04404'
p292
asS'10414'
p293
(lp294
g29
ag106
aS'00423'
p295
aS'01414'
p296
aS'00404'
p297
asg122
(lp298
S'03413'
p299
aS'00434'
p300
aS'01413'
p301
ag29
aS'00414'
p302
aS'11313'
p303
aS'00422'
p304
asS'10144'
p305
(lp306
g29
aS'00104'
p307
aS'01444'
p308
asg129
(lp309
S'01411'
p310
ag29
aS'12211'
p311
aS'00412'
p312
asS'11344'
p313
(lp314
S'01304'
p315
aS'00144'
p316
aS'00344'
p317
aS'11444'
p318
asS'11224'
p319
(lp320
S'02324'
p321
aS'00124'
p322
aS'01424'
p323
aS'01233'
p324
aS'01204'
p325
aS'00224'
p326
aS'01202'
p327
asS'11223'
p328
(lp329
S'11323'
p330
aS'02323'
p331
aS'01423'
p332
ag281
aS'02423'
p333
aS'01203'
p334
asS'11222'
p335
(lp336
S'02322'
p337
aS'01213'
p338
aS'01422'
p339
aS'01224'
p340
asg259
(lp341
S'00444'
p342
aS'02404'
p343
aS'10244'
p344
aS'00244'
p345
asS'13433'
p346
(lp347
S'00333'
p348
aS'03403'
p349
aS'00433'
p350
aS'03424'
p351
asS'02223'
p352
(lp353
S'12234'
p354
aS'12423'
p355
aS'12202'
p356
aS'11323'
p357
asS'12234'
p358
(lp359
S'12434'
p360
aS'02204'
p361
aS'00234'
p362
asS'12233'
p363
(lp364
S'00233'
p365
aS'02203'
p366
aS'02224'
p367
asS'12334'
p368
(lp369
S'10234'
p370
aS'02304'
p371
aS'11434'
p372
aS'00234'
p373
aS'00334'
p374
asS'02433'
p375
(lp376
S'13333'
p377
aS'12403'
p378
aS'10233'
p379
aS'10433'
p380
asS'02434'
p381
(lp382
S'12403'
p383
aS'10234'
p384
aS'10434'
p385
aS'12404'
p386
aS'13334'
p387
asS'12333'
p388
(lp389
S'00333'
p390
aS'00233'
p391
aS'02303'
p392
aS'02324'
p393
asS'00344'
p394
(lp395
S'11244'
p396
aS'00304'
p397
aS'10304'
p398
aS'13344'
p399
asg344
(lp400
g29
aS'00204'
p401
aS'02444'
p402
asS'01111'
p403
(lp404
S'01112'
p405
aS'11112'
p406
aS'11211'
p407
asS'01112'
p408
(lp409
S'11212'
p410
aS'11122'
p411
aS'01113'
p412
aS'11113'
p413
asS'01113'
p414
(lp415
S'11213'
p416
aS'11123'
p417
aS'01114'
p418
aS'11114'
p419
asS'01114'
p420
(lp421
S'01123'
p422
aS'11101'
p423
aS'11124'
p424
aS'11214'
p425
aS'01101'
p426
asS'02314'
p427
(lp428
S'10314'
p429
aS'02323'
p430
aS'12301'
p431
aS'12334'
p432
aS'02301'
p433
aS'12344'
p434
asS'02313'
p435
(lp436
S'12334'
p437
aS'10313'
p438
ag427
aS'12301'
p439
aS'12333'
p440
asS'02312'
p441
(lp442
S'10312'
p443
aS'12323'
p444
aS'12314'
p445
aS'12301'
p446
aS'12324'
p447
aS'02313'
p448
asS'02311'
p449
(lp450
S'10311'
p451
aS'12314'
p452
aS'12313'
p453
aS'02312'
p454
asS'11404'
p455
(lp456
S'00104'
p457
aS'10404'
p458
aS'01413'
p459
ag74
aS'00404'
p460
asS'11403'
p461
(lp462
S'01412'
p463
aS'01433'
p464
aS'10103'
p465
aS'04403'
p466
aS'00103'
p467
asS'11402'
p468
(lp469
S'01411'
p470
aS'03402'
p471
aS'10402'
p472
aS'00102'
p473
asS'11401'
p474
(lp475
S'01411'
p476
ag34
aS'12301'
p477
aS'00101'
p478
aS'02401'
p479
asg470
(lp480
S'11412'
p481
aS'01412'
p482
aS'10411'
p483
aS'11401'
p484
aS'12311'
p485
asS'01413'
p486
(lp487
S'11403'
p488
aS'11401'
p489
aS'10413'
p490
aS'01414'
p491
aS'12313'
p492
aS'11414'
p493
aS'11423'
p494
asg482
(lp495
S'11413'
p496
aS'11402'
p497
aS'11401'
p498
ag486
aS'12312'
p499
aS'11422'
p500
aS'10412'
p501
asS'01414'
p502
(lp503
S'10414'
p504
aS'11401'
p505
aS'01401'
p506
aS'12314'
p507
aS'11404'
p508
aS'11424'
p509
asS'01204'
p510
(lp511
g132
aS'11224'
p512
aS'01222'
p513
aS'11214'
p514
aS'12304'
p515
asS'01201'
p516
(lp517
S'11212'
p518
aS'12301'
p519
aS'11203'
p520
aS'11211'
p521
aS'11202'
p522
asg327
(lp523
S'11212'
p524
aS'11203'
p525
aS'12302'
p526
aS'11222'
p527
aS'11204'
p528
asS'01203'
p529
(lp530
g132
aS'01212'
p531
aS'11213'
p532
aS'11204'
p533
aS'12303'
p534
ag328
asS'14404'
p535
(lp536
S'04422'
p537
aS'10404'
p538
aS'00404'
p539
aS'04413'
p540
asS'10204'
p541
(lp542
g29
aS'00213'
p543
aS'02404'
p544
aS'12204'
p545
aS'00222'
p546
asS'14402'
p547
(lp548
S'10402'
p549
aS'00402'
p550
ag125
asS'14403'
p551
(lp552
S'00403'
p553
aS'10403'
p554
aS'04412'
p555
aS'04433'
p556
asS'00244'
p557
(lp558
S'10204'
p559
aS'00204'
p560
aS'11144'
p561
asg79
(lp562
S'11404'
p563
aS'11402'
p564
aS'01402'
p565
aS'11434'
p566
aS'12324'
p567
aS'10424'
p568
asS'11301'
p569
(lp570
S'02301'
p571
aS'01401'
p572
ag474
aS'01311'
p573
asS'11302'
p574
(lp575
S'13402'
p576
aS'03302'
p577
aS'00102'
p578
aS'01311'
p579
asS'11303'
p580
(lp581
S'11403'
p582
aS'03403'
p583
aS'01312'
p584
aS'01333'
p585
aS'00103'
p586
asS'11304'
p587
(lp588
S'00104'
p589
ag225
aS'00304'
p590
aS'01313'
p591
aS'13404'
p592
asS'10344'
p593
(lp594
S'03444'
p595
ag29
aS'00304'
p596
aS'11244'
p597
asS'12402'
p598
(lp599
S'02411'
p600
aS'10402'
p601
aS'00202'
p602
aS'04402'
p603
asS'12403'
p604
(lp605
g375
aS'00403'
p606
aS'00203'
p607
aS'02412'
p608
aS'10203'
p609
asS'12401'
p610
(lp611
S'03401'
p612
aS'02411'
p613
aS'00201'
p614
aS'10201'
p615
asS'12404'
p616
(lp617
S'00204'
p618
aS'10404'
p619
aS'00404'
p620
aS'02422'
p621
aS'02413'
p622
asg290
(lp623
g29
ag257
aS'04444'
p624
aS'00404'
p625
asS'10114'
p626
(lp627
S'00214'
p628
ag502
ag29
aS'00123'
p629
aS'00104'
p630
aS'01114'
p631
asS'00424'
p632
(lp633
S'10402'
p634
aS'10404'
p635
aS'12224'
p636
aS'11324'
p637
aS'00404'
p638
asS'00423'
p639
(lp640
S'00403'
p641
aS'11323'
p642
aS'10402'
p643
aS'10403'
p644
aS'12223'
p645
asS'00422'
p646
(lp647
S'11322'
p648
aS'10402'
p649
ag632
aS'12222'
p650
asS'10111'
p651
(lp652
S'01111'
p653
aS'00112'
p654
aS'00211'
p655
asS'12304'
p656
(lp657
S'02322'
p658
aS'00304'
p659
aS'00204'
p660
aS'02313'
p661
aS'10304'
p662
asg446
(lp663
g449
aS'10201'
p664
aS'02401'
p665
aS'03301'
p666
aS'11401'
p667
asS'12303'
p668
(lp669
S'02333'
p670
aS'00203'
p671
aS'00303'
p672
ag96
aS'02312'
p673
asg526
(lp674
S'03402'
p675
aS'00202'
p676
aS'02311'
p677
aS'10302'
p678
asS'03333'
p679
(lp680
S'10333'
p681
aS'12433'
p682
aS'13303'
p683
asS'03334'
p684
(lp685
S'13304'
p686
aS'12434'
p687
aS'13303'
p688
aS'10334'
p689
asg379
(lp690
g29
aS'02333'
p691
aS'00203'
p692
aS'00224'
p693
asg370
(lp694
g29
aS'00204'
p695
aS'02334'
p696
aS'02434'
p697
asS'04423'
p698
(lp699
S'10423'
p700
aS'04414'
p701
aS'04402'
p702
aS'14402'
p703
aS'14403'
p704
asS'04422'
p705
(lp706
S'10422'
p707
aS'14402'
p708
aS'04424'
p709
asS'04424'
p710
(lp711
S'14404'
p712
aS'10424'
p713
aS'14402'
p714
aS'04402'
p715
asS'00333'
p716
(lp717
g262
aS'11233'
p718
aS'10303'
p719
aS'00303'
p720
asS'00334'
p721
(lp722
S'11234'
p723
aS'10304'
p724
aS'10303'
p725
aS'00303'
p726
ag266
asS'01123'
p727
(lp728
S'11124'
p729
aS'11223'
p730
aS'11133'
p731
aS'01102'
p732
aS'01114'
p733
asS'01122'
p734
(lp735
S'11123'
p736
aS'01124'
p737
ag335
asS'01124'
p738
(lp739
S'11102'
p740
aS'11134'
p741
aS'01102'
p742
aS'11224'
p743
asS'03414'
p744
(lp745
S'03401'
p746
ag293
aS'13444'
p747
aS'13401'
p748
aS'13404'
p749
aS'03423'
p750
asS'03413'
p751
(lp752
S'13401'
p753
aS'10413'
p754
aS'13403'
p755
ag744
aS'13434'
p756
asS'03412'
p757
(lp758
S'13401'
p759
aS'03413'
p760
aS'13424'
p761
aS'13402'
p762
aS'10412'
p763
asS'03411'
p764
(lp765
S'13401'
p766
aS'10411'
p767
aS'03412'
p768
aS'13414'
p769
asS'11122'
p770
(lp771
S'01322'
p772
aS'01113'
p773
aS'01124'
p774
asg283
(lp775
S'01323'
p776
aS'01103'
p777
aS'01423'
p778
aS'11223'
p779
asS'11124'
p780
(lp781
S'01133'
p782
aS'00124'
p783
aS'01104'
p784
aS'01102'
p785
aS'01324'
p786
asS'02224'
p787
(lp788
S'12424'
p789
aS'12244'
p790
aS'11324'
p791
aS'12202'
p792
asS'13434'
p793
(lp794
S'03404'
p795
aS'00434'
p796
aS'10334'
p797
aS'00334'
p798
asS'02222'
p799
(lp800
S'11322'
p801
aS'12224'
p802
aS'12422'
p803
asS'01444'
p804
(lp805
S'10444'
p806
aS'11404'
p807
aS'12344'
p808
aS'01404'
p809
asS'00204'
p810
(lp811
S'10224'
p812
ag132
aS'00213'
p813
aS'11104'
p814
ag557
asg239
(lp815
S'00233'
p816
ag132
aS'11103'
p817
aS'10223'
p818
asg676
(lp819
S'11102'
p820
aS'10204'
p821
aS'00222'
p822
aS'10222'
p823
asg37
(lp824
S'00211'
p825
aS'11101'
p826
aS'10203'
p827
aS'10212'
p828
asS'01234'
p829
(lp830
g368
aS'11244'
p831
aS'11203'
p832
aS'11204'
p833
aS'01203'
p834
asS'01233'
p835
(lp836
S'11203'
p837
ag388
aS'11234'
p838
aS'01203'
p839
asS'01334'
p840
(lp841
g793
aS'11344'
p842
aS'12234'
p843
aS'11303'
p844
aS'11304'
p845
aS'11434'
p846
asg585
(lp847
S'11433'
p848
aS'11303'
p849
aS'11334'
p850
aS'12233'
p851
ag346
asS'10304'
p852
(lp853
g29
aS'13304'
p854
aS'03404'
p855
aS'00322'
p856
aS'00313'
p857
asS'10303'
p858
(lp859
g29
ag716
aS'03303'
p860
aS'00312'
p861
asS'10302'
p862
(lp863
g29
aS'13302'
p864
aS'02302'
p865
aS'00311'
p866
asS'10301'
p867
(lp868
S'00401'
p869
aS'11201'
p870
aS'01301'
p871
aS'00311'
p872
asS'13324'
p873
(lp874
S'00324'
p875
aS'03333'
p876
aS'03304'
p877
aS'03302'
p878
asS'13322'
p879
(lp880
S'03313'
p881
aS'03324'
p882
aS'00322'
p883
asS'13323'
p884
(lp885
S'10323'
p886
aS'03303'
p887
aS'00323'
p888
asS'14434'
p889
(lp890
S'04404'
p891
aS'00434'
p892
aS'10434'
p893
asg747
(lp894
S'00444'
p895
aS'03404'
p896
aS'00344'
p897
aS'10344'
p898
asS'00113'
p899
(lp900
S'10123'
p901
aS'10114'
p902
aS'11113'
p903
aS'00114'
p904
asS'00112'
p905
(lp906
S'00113'
p907
aS'10122'
p908
aS'11112'
p909
aS'10113'
p910
asS'00111'
p911
(lp912
S'11111'
p913
aS'00112'
p914
aS'10112'
p915
asS'00114'
p916
(lp917
S'11114'
p918
aS'00101'
p919
aS'10101'
p920
aS'00123'
p921
aS'10124'
p922
asS'10401'
p923
(lp924
g29
ag15
aS'01401'
p925
aS'12201'
p926
asg601
(lp927
g29
aS'11302'
p928
aS'00411'
p929
aS'02402'
p930
ag547
asS'10403'
p931
(lp932
g29
aS'00412'
p933
aS'03403'
p934
aS'00433'
p935
asS'10404'
p936
(lp937
g29
aS'04404'
p938
ag535
aS'00422'
p939
aS'00413'
p940
asS'11333'
p941
(lp942
S'03433'
p943
aS'01303'
p944
aS'00133'
p945
ag231
asS'11334'
p946
(lp947
S'00134'
p948
aS'01304'
p949
aS'03434'
p950
aS'11434'
p951
aS'00334'
p952
asS'11233'
p953
(lp954
S'02433'
p955
aS'01224'
p956
aS'00133'
p957
aS'01203'
p958
asg168
(lp959
g510
aS'00134'
p960
aS'00234'
p961
aS'02434'
p962
aS'11334'
p963
asS'02404'
p964
(lp965
S'12444'
p966
aS'02413'
p967
aS'10404'
p968
aS'13304'
p969
ag132
ag541
aS'12424'
p970
asS'02403'
p971
(lp972
g931
aS'13303'
p973
ag132
aS'12434'
p974
aS'12423'
p975
aS'10203'
p976
asS'02402'
p977
(lp978
S'10402'
p979
aS'13302'
p980
aS'12404'
p981
ag132
aS'12422'
p982
aS'10202'
p983
aS'12424'
p984
asg479
(lp985
S'10401'
p986
aS'12403'
p987
aS'12412'
p988
aS'12414'
p989
aS'13301'
p990
ag132
aS'10201'
p991
asg636
(lp992
S'02202'
p993
aS'02233'
p994
aS'02424'
p995
aS'02204'
p996
aS'00224'
p997
asS'02211'
p998
(lp999
S'12213'
p1000
aS'12411'
p1001
aS'11311'
p1002
asS'12222'
p1003
(lp1004
S'02213'
p1005
aS'02422'
p1006
aS'02224'
p1007
asS'12223'
p1008
(lp1009
S'02423'
p1010
aS'12423'
p1011
aS'02203'
p1012
aS'00223'
p1013
asS'12344'
p1014
(lp1015
S'11444'
p1016
aS'02304'
p1017
aS'10244'
p1018
aS'00344'
p1019
aS'00244'
p1020
asS'14401'
p1021
(lp1022
S'00401'
p1023
aS'10401'
p1024
aS'04411'
p1025
asg831
(lp1026
S'11344'
p1027
aS'01204'
p1028
aS'00144'
p1029
aS'00244'
p1030
asg571
(lp1031
S'12304'
p1032
aS'10301'
p1033
aS'12312'
p1034
aS'12313'
p1035
aS'12303'
p1036
asS'02302'
p1037
(lp1038
S'12323'
p1039
aS'12322'
p1040
aS'10302'
p1041
ag132
aS'12304'
p1042
asS'02303'
p1043
(lp1044
S'12323'
p1045
ag132
aS'10303'
p1046
ag441
aS'12333'
p1047
asS'02304'
p1048
(lp1049
S'12334'
p1050
ag132
aS'02322'
p1051
aS'10304'
p1052
aS'12324'
p1053
asS'11411'
p1054
(lp1055
S'02411'
p1056
aS'00111'
p1057
ag651
aS'01412'
p1058
aS'12311'
p1059
asS'11412'
p1060
(lp1061
S'02412'
p1062
aS'03412'
p1063
aS'00112'
p1064
ag81
aS'12312'
p1065
aS'10112'
p1066
asS'11413'
p1067
(lp1068
S'02413'
p1069
aS'01414'
p1070
aS'00113'
p1071
aS'01422'
p1072
aS'01434'
p1073
aS'04413'
p1074
asS'11414'
p1075
(lp1076
S'02414'
p1077
aS'01404'
p1078
aS'01423'
p1079
aS'00414'
p1080
aS'00114'
p1081
ag626
asg565
(lp1082
S'10402'
p1083
aS'11403'
p1084
ag1060
ag132
aS'12302'
p1085
aS'11424'
p1086
asS'01403'
p1087
(lp1088
S'10403'
p1089
aS'11404'
p1090
ag132
aS'11413'
p1091
aS'12303'
p1092
aS'11434'
p1093
asg506
(lp1094
S'11411'
p1095
aS'11414'
p1096
ag468
aS'10401'
p1097
ag132
aS'12301'
p1098
asS'01404'
p1099
(lp1100
S'10404'
p1101
ag132
aS'11414'
p1102
aS'12304'
p1103
aS'11444'
p1104
asS'13401'
p1105
(lp1106
S'04401'
p1107
aS'03411'
p1108
ag867
aS'00301'
p1109
asS'13403'
p1110
(lp1111
S'03433'
p1112
aS'00403'
p1113
aS'10303'
p1114
aS'00303'
p1115
aS'03412'
p1116
asS'13402'
p1117
(lp1118
S'10402'
p1119
aS'00402'
p1120
aS'00302'
p1121
aS'03411'
p1122
asS'13404'
p1123
(lp1124
S'03422'
p1125
aS'10404'
p1126
aS'00304'
p1127
aS'03413'
p1128
aS'00404'
p1129
asS'03444'
p1130
(lp1131
S'10444'
p1132
aS'03404'
p1133
aS'13404'
p1134
asS'11111'
p1135
(lp1136
S'01211'
p1137
aS'11211'
p1138
ag408
asg903
(lp1139
S'01213'
p1140
aS'01413'
p1141
aS'01122'
p1142
ag420
aS'01134'
p1143
asS'11112'
p1144
(lp1145
S'11212'
p1146
aS'01212'
p1147
ag727
aS'01312'
p1148
asg918
(lp1149
S'01104'
p1150
aS'01123'
p1151
aS'00114'
p1152
aS'11214'
p1153
aS'01214'
p1154
asg315
(lp1155
S'11404'
p1156
ag132
aS'11334'
p1157
aS'12204'
p1158
aS'11314'
p1159
ag1123
aS'01313'
p1160
asS'01301'
p1161
(lp1162
S'11401'
p1163
aS'11313'
p1164
aS'13401'
p1165
aS'11302'
p1166
ag587
aS'12201'
p1167
aS'11311'
p1168
asS'01303'
p1169
(lp1170
S'11403'
p1171
aS'11313'
p1172
ag1110
ag132
aS'11333'
p1173
aS'11304'
p1174
aS'12203'
p1175
asS'01302'
p1176
(lp1177
S'11402'
p1178
ag132
aS'11323'
p1179
aS'13402'
p1180
aS'11303'
p1181
aS'11312'
p1182
aS'12202'
p1183
asg1104
(lp1184
S'00444'
p1185
aS'00144'
p1186
aS'12344'
p1187
aS'01404'
p1188
ag305
asg687
(lp1189
g964
aS'00434'
p1190
aS'00234'
p1191
aS'10234'
p1192
asS'12433'
p1193
(lp1194
S'00233'
p1195
aS'00433'
p1196
aS'02403'
p1197
aS'02424'
p1198
asS'13314'
p1199
(lp1200
S'00314'
p1201
aS'03323'
p1202
aS'03414'
p1203
aS'10314'
p1204
aS'03304'
p1205
asS'13311'
p1206
(lp1207
S'10311'
p1208
aS'03312'
p1209
aS'03411'
p1210
asS'13313'
p1211
(lp1212
S'03314'
p1213
aS'03322'
p1214
aS'03413'
p1215
ag684
aS'00313'
p1216
asS'13312'
p1217
(lp1218
S'10312'
p1219
ag51
aS'03412'
p1220
aS'00312'
p1221
asS'01433'
p1222
(lp1223
S'01403'
p1224
aS'10433'
p1225
aS'11403'
p1226
aS'11434'
p1227
aS'12333'
p1228
asg870
(lp1229
S'02201'
p1230
ag569
aS'01211'
p1231
ag1161
asS'11203'
p1232
(lp1233
S'01212'
p1234
aS'11303'
p1235
aS'02403'
p1236
ag835
aS'00103'
p1237
asS'11202'
p1238
(lp1239
S'01402'
p1240
aS'02302'
p1241
aS'01211'
p1242
aS'12302'
p1243
asS'11204'
p1244
(lp1245
S'00104'
p1246
aS'01213'
p1247
aS'00204'
p1248
aS'01222'
p1249
ag656
asS'10123'
p1250
(lp1251
S'01323'
p1252
aS'00103'
p1253
aS'00423'
p1254
aS'01223'
p1255
aS'00323'
p1256
asg908
(lp1257
S'00113'
p1258
aS'00124'
p1259
aS'01222'
p1260
aS'00322'
p1261
asS'10433'
p1262
(lp1263
g29
aS'03433'
p1264
aS'00424'
p1265
ag941
aS'00403'
p1266
asg935
(lp1267
S'11333'
p1268
aS'10403'
p1269
aS'00403'
p1270
aS'12233'
p1271
asg300
(lp1272
S'12234'
p1273
aS'10403'
p1274
aS'10404'
p1275
aS'11334'
p1276
aS'00404'
p1277
asg385
(lp1278
g29
aS'04434'
p1279
aS'00404'
p1280
aS'03434'
p1281
ag358
asg922
(lp1282
g29
aS'00324'
p1283
aS'01224'
p1284
aS'01424'
p1285
aS'00133'
p1286
aS'00104'
p1287
aS'00102'
p1288
asS'12314'
p1289
(lp1290
S'02414'
p1291
aS'02323'
p1292
aS'00314'
p1293
aS'03314'
p1294
aS'10214'
p1295
aS'00214'
p1296
aS'02304'
p1297
asS'12312'
p1298
(lp1299
S'11412'
p1300
aS'03412'
p1301
aS'03312'
p1302
aS'00212'
p1303
aS'02412'
p1304
aS'02323'
p1305
aS'10212'
p1306
asS'12313'
p1307
(lp1308
S'00213'
p1309
aS'03313'
p1310
aS'00313'
p1311
aS'02322'
p1312
aS'02413'
p1313
aS'02334'
p1314
aS'02314'
p1315
asS'12311'
p1316
(lp1317
S'03311'
p1318
aS'11411'
p1319
aS'10211'
p1320
aS'02312'
p1321
aS'02411'
p1322
asg715
(lp1323
g132
aS'14424'
p1324
aS'10402'
p1325
asS'04434'
p1326
(lp1327
S'14404'
p1328
aS'10434'
p1329
aS'04403'
p1330
aS'14403'
p1331
asS'04433'
p1332
(lp1333
S'10433'
p1334
aS'04403'
p1335
aS'14403'
p1336
asg877
(lp1337
S'10304'
p1338
ag132
aS'03313'
p1339
aS'12404'
p1340
aS'13334'
p1341
asg887
(lp1342
S'13333'
p1343
ag132
aS'10303'
p1344
aS'12403'
p1345
asg577
(lp1346
S'12402'
p1347
ag132
aS'10302'
p1348
aS'13323'
p1349
asg666
(lp1350
S'13304'
p1351
aS'12401'
p1352
aS'10301'
p1353
aS'13313'
p1354
asg250
(lp1355
S'11224'
p1356
ag873
aS'10304'
p1357
aS'00302'
p1358
aS'10302'
p1359
asS'00322'
p1360
(lp1361
S'00324'
p1362
aS'10302'
p1363
aS'13322'
p1364
aS'11222'
p1365
asS'00323'
p1366
(lp1367
S'00302'
p1368
aS'11223'
p1369
aS'10303'
p1370
aS'10302'
p1371
ag884
asS'10224'
p1372
(lp1373
S'02224'
p1374
aS'00202'
p1375
ag29
aS'00204'
p1376
aS'00233'
p1377
aS'00424'
p1378
aS'02424'
p1379
asS'10222'
p1380
(lp1381
S'00224'
p1382
aS'00213'
p1383
aS'02222'
p1384
aS'00422'
p1385
asS'10223'
p1386
(lp1387
g29
aS'00423'
p1388
aS'02223'
p1389
aS'00203'
p1390
aS'02323'
p1391
asS'00444'
p1392
(lp1393
S'11344'
p1394
aS'12244'
p1395
aS'10404'
p1396
aS'00404'
p1397
asS'01133'
p1398
(lp1399
g953
aS'11134'
p1400
aS'01103'
p1401
asg1143
(lp1402
S'11234'
p1403
aS'11103'
p1404
aS'11144'
p1405
aS'01103'
p1406
asS'03401'
p1407
(lp1408
S'13413'
p1409
aS'10401'
p1410
aS'13404'
p1411
aS'13414'
p1412
ag132
asg191
(lp1413
g132
aS'10402'
p1414
aS'13424'
p1415
aS'13423'
p1416
asS'03403'
p1417
(lp1418
g132
aS'10403'
p1419
aS'13433'
p1420
aS'13434'
p1421
ag757
asg198
(lp1422
S'03422'
p1423
ag132
ag936
aS'13434'
p1424
aS'13444'
p1425
asg670
(lp1426
S'10333'
p1427
aS'02303'
p1428
aS'12303'
p1429
asg696
(lp1430
S'12304'
p1431
aS'02303'
p1432
aS'10334'
p1433
aS'12303'
p1434
asS'02233'
p1435
(lp1436
S'11333'
p1437
aS'12433'
p1438
aS'12203'
p1439
asS'02234'
p1440
(lp1441
S'12204'
p1442
aS'12434'
p1443
ag946
aS'12203'
p1444
asg103
(lp1445
g1135
aS'00212'
p1446
aS'10213'
p1447
asS'00212'
p1448
(lp1449
S'10214'
p1450
aS'00223'
p1451
aS'11112'
p1452
aS'10223'
p1453
asg1309
(lp1454
S'10233'
p1455
aS'11113'
p1456
aS'00234'
p1457
ag101
asS'00214'
p1458
(lp1459
S'10201'
p1460
aS'11114'
p1461
aS'00204'
p1462
aS'10234'
p1463
asS'01224'
p1464
(lp1465
S'11244'
p1466
aS'11202'
p1467
aS'11234'
p1468
aS'01202'
p1469
aS'12324'
p1470
asg513
(lp1471
S'12322'
p1472
aS'01224'
p1473
aS'11224'
p1474
aS'11223'
p1475
asS'01223'
p1476
(lp1477
S'11233'
p1478
aS'12323'
p1479
aS'11202'
p1480
aS'01214'
p1481
aS'11224'
p1482
aS'11234'
p1483
aS'01202'
p1484
asg222
(lp1485
g1087
aS'12323'
p1486
aS'10123'
p1487
aS'00123'
p1488
ag698
aS'03423'
p1489
asg229
(lp1490
S'03422'
p1491
aS'01424'
p1492
aS'01413'
p1493
aS'00122'
p1494
asg1086
(lp1495
S'01402'
p1496
aS'01404'
p1497
aS'00124'
p1498
aS'01433'
p1499
aS'00424'
p1500
aS'03424'
p1501
asg451
(lp1502
S'00312'
p1503
aS'00411'
p1504
aS'11211'
p1505
aS'01311'
p1506
asS'10312'
p1507
(lp1508
g29
aS'00412'
p1509
aS'01312'
p1510
aS'00323'
p1511
aS'11212'
p1512
aS'02312'
p1513
asS'10313'
p1514
(lp1515
S'00314'
p1516
aS'03313'
p1517
ag721
ag29
aS'00413'
p1518
aS'01313'
p1519
aS'00322'
p1520
asg429
(lp1521
S'03414'
p1522
aS'00304'
p1523
ag29
aS'01314'
p1524
aS'00414'
p1525
aS'00323'
p1526
asg561
(lp1527
S'11244'
p1528
aS'01104'
p1529
aS'00144'
p1530
asg307
(lp1531
g132
aS'10114'
p1532
aS'00122'
p1533
aS'11104'
p1534
asg478
(lp1535
S'11101'
p1536
ag45
aS'10111'
p1537
asg274
(lp1538
S'11102'
p1539
aS'10112'
p1540
ag39
asg467
(lp1541
S'10104'
p1542
aS'11103'
p1543
aS'10113'
p1544
ag905
asS'11322'
p1545
(lp1546
S'03322'
p1547
aS'00122'
p1548
aS'01313'
p1549
aS'01324'
p1550
asS'11323'
p1551
(lp1552
S'03423'
p1553
aS'03323'
p1554
aS'11423'
p1555
aS'00123'
p1556
ag1169
asS'11324'
p1557
(lp1558
S'03324'
p1559
aS'00324'
p1560
aS'01304'
p1561
aS'00124'
p1562
ag1176
aS'01333'
p1563
asS'10112'
p1564
(lp1565
S'01212'
p1566
aS'01112'
p1567
aS'00123'
p1568
aS'00212'
p1569
aS'00312'
p1570
asg613
(lp1571
S'10211'
p1572
aS'12413'
p1573
aS'12401'
p1574
aS'13311'
p1575
aS'10411'
p1576
asS'02412'
p1577
(lp1578
S'10412'
p1579
aS'12402'
p1580
ag610
aS'12414'
p1581
aS'13312'
p1582
aS'12423'
p1583
aS'10212'
p1584
asS'02413'
p1585
(lp1586
S'10413'
p1587
aS'12403'
p1588
aS'12401'
p1589
aS'13313'
p1590
aS'12433'
p1591
aS'10213'
p1592
asS'02414'
p1593
(lp1594
S'10414'
p1595
ag1199
aS'12401'
p1596
aS'12404'
p1597
aS'10214'
p1598
aS'12434'
p1599
asg10
(lp1600
g1440
aS'00213'
p1601
aS'02313'
p1602
ag799
ag175
asS'12212'
p1603
(lp1604
S'02412'
p1605
aS'12412'
p1606
aS'02223'
p1607
aS'02312'
p1608
asg311
(lp1609
S'12411'
p1610
ag152
aS'02311'
p1611
asg26
(lp1612
S'02223'
p1613
aS'02314'
p1614
aS'00214'
p1615
aS'12414'
p1616
aS'02204'
p1617
asg910
(lp1618
S'00213'
p1619
aS'00134'
p1620
aS'00413'
p1621
aS'01113'
p1622
aS'00122'
p1623
aS'01313'
p1624
ag916
asS'00401'
p1625
(lp1626
S'00411'
p1627
ag132
aS'10414'
p1628
aS'12201'
p1629
aS'11301'
p1630
asg1270
(lp1631
g132
aS'11303'
p1632
aS'00433'
p1633
aS'10434'
p1634
aS'12203'
p1635
asg1120
(lp1636
g132
aS'11302'
p1637
aS'12202'
p1638
aS'10424'
p1639
ag646
asg1277
(lp1640
S'10444'
p1641
ag132
aS'11304'
p1642
aS'12204'
p1643
ag1392
asg1230
(lp1644
S'12212'
p1645
aS'12401'
p1646
aS'11301'
p1647
aS'12203'
p1648
asS'13411'
p1649
(lp1650
S'10311'
p1651
aS'00311'
p1652
aS'03412'
p1653
aS'04411'
p1654
asg1295
(lp1655
S'00204'
p1656
ag1593
aS'00314'
p1657
ag29
aS'01214'
p1658
aS'00223'
p1659
asg1073
(lp1660
g455
aS'11403'
p1661
aS'01403'
p1662
aS'11444'
p1663
aS'12334'
p1664
aS'10434'
p1665
asg1320
(lp1666
S'01211'
p1667
aS'00311'
p1668
ag1448
asg1592
(lp1669
g29
aS'00214'
p1670
aS'00313'
p1671
aS'01213'
p1672
aS'00222'
p1673
aS'02313'
p1674
ag242
asg1584
(lp1675
S'02212'
p1676
aS'01212'
p1677
aS'00223'
p1678
aS'00412'
p1679
aS'00312'
p1680
asg71
(lp1681
S'10404'
p1682
ag132
aS'14444'
p1683
ag705
asg111
(lp1684
g132
ag923
aS'14414'
p1685
asg1335
(lp1686
S'14434'
p1687
aS'10403'
p1688
ag113
ag132
asg763
(lp1689
g29
aS'12212'
p1690
aS'02412'
p1691
aS'01412'
p1692
ag639
asS'00314'
p1693
(lp1694
S'13314'
p1695
ag146
aS'11214'
p1696
aS'10301'
p1697
aS'10344'
p1698
asg866
(lp1699
g1206
aS'11211'
p1700
aS'10314'
p1701
aS'00312'
p1702
asS'00313'
p1703
(lp1704
S'11213'
p1705
ag1211
aS'10301'
p1706
aS'10334'
p1707
aS'00314'
p1708
asg1503
(lp1709
S'11212'
p1710
aS'00313'
p1711
aS'10324'
p1712
aS'10301'
p1713
ag1217
asS'13412'
p1714
(lp1715
S'00412'
p1716
ag186
aS'10312'
p1717
aS'04412'
p1718
aS'00312'
p1719
asS'13413'
p1720
(lp1721
S'03414'
p1722
aS'00313'
p1723
aS'03434'
p1724
ag8
ag181
aS'04413'
p1725
asg1012
(lp1726
g132
aS'11303'
p1727
aS'12223'
p1728
aS'12403'
p1729
asg993
(lp1730
S'12204'
p1731
aS'12402'
p1732
ag574
aS'12222'
p1733
asg361
(lp1734
g132
aS'12224'
p1735
aS'11304'
p1736
aS'12404'
p1737
ag158
asS'13414'
p1738
(lp1739
S'03404'
p1740
aS'00314'
p1741
aS'10314'
p1742
aS'00414'
p1743
aS'03423'
p1744
aS'04414'
p1745
asg1112
(lp1746
S'13403'
p1747
aS'03403'
p1748
ag1262
asg1724
(lp1749
S'13403'
p1750
aS'03403'
p1751
aS'13404'
p1752
aS'10434'
p1753
asS'00144'
p1754
(lp1755
S'00104'
p1756
aS'10104'
p1757
aS'11144'
p1758
asg820
(lp1759
S'01111'
p1760
ag1238
aS'01302'
p1761
asg817
(lp1762
S'01403'
p1763
aS'01112'
p1764
aS'11203'
p1765
ag1398
asg826
(lp1766
S'11201'
p1767
aS'01111'
p1768
aS'01201'
p1769
asg1534
(lp1770
S'00104'
p1771
aS'01113'
p1772
aS'01122'
p1773
aS'11204'
p1774
asS'01314'
p1775
(lp1776
S'11414'
p1777
aS'11324'
p1778
aS'11344'
p1779
aS'13414'
p1780
aS'12214'
p1781
aS'11301'
p1782
asS'01312'
p1783
(lp1784
g1714
aS'11412'
p1785
aS'11322'
p1786
ag1603
aS'11324'
p1787
aS'11301'
p1788
aS'11313'
p1789
asg1549
(lp1790
g1067
ag1720
aS'12213'
p1791
aS'11323'
p1792
aS'11334'
p1793
aS'11301'
p1794
aS'11314'
p1795
asg573
(lp1796
g1054
aS'12211'
p1797
aS'11314'
p1798
aS'11312'
p1799
ag1649
asg1451
(lp1800
S'00203'
p1801
aS'11123'
p1802
ag90
aS'10234'
p1803
asS'00222'
p1804
(lp1805
S'10224'
p1806
aS'11122'
p1807
aS'00224'
p1808
asg1808
(lp1809
S'11124'
p1810
ag810
aS'10202'
p1811
aS'10244'
p1812
asS'10323'
p1813
(lp1814
g29
aS'02323'
p1815
aS'03323'
p1816
aS'11223'
p1817
ag141
asS'10322'
p1818
(lp1819
S'02322'
p1820
ag29
aS'00324'
p1821
ag1703
asS'10324'
p1822
(lp1823
S'00333'
p1824
aS'00304'
p1825
ag136
ag29
aS'02324'
p1826
aS'03424'
p1827
asg982
(lp1828
S'04422'
p1829
aS'00222'
p1830
aS'02413'
p1831
aS'02424'
p1832
asg54
(lp1833
S'04423'
p1834
ag971
aS'00223'
p1835
aS'00423'
p1836
aS'10223'
p1837
asS'12424'
p1838
(lp1839
S'02404'
p1840
ag977
aS'02433'
p1841
aS'00424'
p1842
aS'00224'
p1843
aS'04424'
p1844
asg854
(lp1845
S'10304'
p1846
aS'00304'
p1847
aS'03313'
p1848
aS'03322'
p1849
asg140
(lp1850
S'03311'
p1851
aS'00302'
p1852
ag862
asg145
(lp1853
g679
aS'03312'
p1854
aS'10303'
p1855
aS'00303'
p1856
asg151
(lp1857
S'03401'
p1858
aS'10301'
p1859
aS'03311'
p1860
asg1620
(lp1861
S'11134'
p1862
aS'10144'
p1863
aS'10103'
p1864
aS'00103'
p1865
asg43
(lp1866
S'10134'
p1867
ag170
aS'00103'
p1868
asS'10134'
p1869
(lp1870
S'01334'
p1871
ag29
aS'01434'
p1872
aS'00434'
p1873
aS'00104'
p1874
asg287
(lp1875
S'00124'
p1876
aS'00433'
p1877
aS'00103'
p1878
aS'01333'
p1879
asS'02444'
p1880
(lp1881
S'10444'
p1882
aS'10244'
p1883
aS'13344'
p1884
aS'12404'
p1885
asg1512
(lp1886
S'01412'
p1887
aS'11312'
p1888
aS'02212'
p1889
aS'01312'
p1890
ag1476
aS'02312'
p1891
asg416
(lp1892
S'02413'
p1893
ag829
aS'00113'
p1894
aS'02213'
p1895
aS'01222'
p1896
aS'01313'
p1897
aS'01214'
p1898
asg407
(lp1899
S'01212'
p1900
aS'02211'
p1901
aS'11311'
p1902
aS'01311'
p1903
asg425
(lp1904
S'00214'
p1905
ag1775
aS'01223'
p1906
aS'02214'
p1907
aS'00114'
p1908
aS'01204'
p1909
aS'11314'
p1910
asg707
(lp1911
g29
aS'00413'
p1912
ag1545
aS'02422'
p1913
aS'00424'
p1914
asS'10423'
p1915
(lp1916
g29
aS'03423'
p1917
aS'02423'
p1918
ag1008
aS'00403'
p1919
asS'10424'
p1920
(lp1921
g29
aS'00402'
p1922
aS'00404'
p1923
aS'11324'
p1924
aS'00433'
p1925
aS'02424'
p1926
ag710
asg1479
(lp1927
S'00323'
p1928
aS'03423'
p1929
aS'00223'
p1930
ag1043
aS'11423'
p1931
aS'10223'
p1932
asg1040
(lp1933
S'03422'
p1934
aS'00222'
p1935
aS'02313'
p1936
aS'02324'
p1937
asg1470
(lp1938
S'00324'
p1939
aS'02333'
p1940
aS'02302'
p1941
ag1048
aS'00224'
p1942
aS'03424'
p1943
asS'02423'
p1944
(lp1945
S'12402'
p1946
aS'12403'
p1947
aS'12434'
p1948
aS'13323'
p1949
ag1915
ag1386
asS'02422'
p1950
(lp1951
S'12402'
p1952
aS'10422'
p1953
aS'12424'
p1954
ag1380
ag879
asS'02424'
p1955
(lp1956
S'12444'
p1957
aS'12402'
p1958
aS'12404'
p1959
aS'13324'
p1960
ag1372
ag1920
asS'04444'
p1961
(lp1962
S'14404'
p1963
aS'04404'
p1964
aS'10444'
p1965
asg1860
(lp1966
S'12411'
p1967
aS'13314'
p1968
aS'10311'
p1969
asg1209
(lp1970
S'13324'
p1971
aS'10312'
p1972
aS'12412'
p1973
aS'13301'
p1974
asS'03313'
p1975
(lp1976
S'10313'
p1977
aS'12413'
p1978
aS'13301'
p1979
aS'13334'
p1980
asg1294
(lp1981
S'10314'
p1982
aS'12414'
p1983
aS'13344'
p1984
aS'13301'
p1985
asg1529
(lp1986
g132
ag734
aS'11114'
p1987
aS'11204'
p1988
asg777
(lp1989
S'11113'
p1990
ag1232
aS'01112'
p1991
aS'11104'
p1992
asg742
(lp1993
S'11103'
p1994
aS'11112'
p1995
aS'11202'
p1996
asg38
(lp1997
S'11111'
p1998
aS'11102'
p1999
aS'11201'
p2000
asg1051
(lp2001
S'12302'
p2002
ag1818
aS'02324'
p2003
aS'12324'
p2004
asg1305
(lp2005
g1813
aS'12303'
p2006
aS'12302'
p2007
aS'12334'
p2008
aS'02302'
p2009
aS'02314'
p2010
asg393
(lp2011
S'10324'
p2012
aS'12304'
p2013
ag1037
aS'12344'
p2014
aS'12302'
p2015
asS'01213'
p2016
(lp2017
S'11201'
p2018
aS'12313'
p2019
aS'11214'
p2020
aS'01214'
p2021
aS'11233'
p2022
aS'11223'
p2023
asg1900
(lp2024
S'01213'
p2025
aS'11213'
p2026
ag1298
aS'11214'
p2027
aS'11223'
p2028
aS'11222'
p2029
asg1242
(lp2030
S'11212'
p2031
aS'11213'
p2032
ag1316
aS'01212'
p2033
asS'01214'
p2034
(lp2035
S'11201'
p2036
ag1289
aS'01223'
p2037
aS'11224'
p2038
aS'11234'
p2039
aS'01201'
p2040
asg88
(lp2041
S'01403'
p2042
aS'01424'
p2043
aS'00133'
p2044
aS'04433'
p2045
asg846
(lp2046
g1326
aS'10134'
p2047
ag1099
aS'00134'
p2048
aS'12334'
p2049
aS'00434'
p2050
asg1884
(lp2051
S'03304'
p2052
aS'00344'
p2053
ag593
asS'14414'
p2054
(lp2055
S'04423'
p2056
aS'04404'
p2057
aS'10414'
p2058
aS'00414'
p2059
asg1910
(lp2060
g1075
aS'00314'
p2061
aS'01414'
p2062
aS'01323'
p2063
aS'01304'
p2064
aS'00114'
p2065
aS'02314'
p2066
asg161
(lp2067
S'03413'
p2068
aS'01413'
p2069
aS'00113'
p2070
aS'01322'
p2071
aS'01314'
p2072
ag840
aS'02313'
p2073
asS'11312'
p2074
(lp2075
S'11412'
p2076
aS'03312'
p2077
aS'01412'
p2078
ag217
aS'00112'
p2079
aS'02312'
p2080
asg1002
(lp2081
S'01411'
p2082
aS'11411'
p2083
ag1783
aS'02311'
p2084
asg1967
(lp2085
S'00211'
p2086
aS'02412'
p2087
aS'10211'
p2088
aS'03411'
p2089
asS'12413'
p2090
(lp2091
S'00213'
p2092
aS'03413'
p2093
aS'00413'
p2094
aS'02414'
p2095
aS'02422'
p2096
ag381
asS'12412'
p2097
(lp2098
g1944
aS'00212'
p2099
aS'04412'
p2100
aS'03412'
p2101
aS'10212'
p2102
asg989
(lp2103
S'02404'
p2104
aS'00214'
p2105
aS'10214'
p2106
aS'03414'
p2107
ag20
aS'02423'
p2108
asg545
(lp2109
S'02213'
p2110
aS'00204'
p2111
aS'02222'
p2112
ag616
asg1167
(lp2113
S'02301'
p2114
aS'12401'
p2115
ag998
asg94
(lp2116
g598
aS'02211'
p2117
aS'02402'
p2118
asS'12203'
p2119
(lp2120
S'02212'
p2121
aS'12403'
p2122
ag1435
aS'00203'
p2123
as.